target datalayout = "e-m:e-p270:32:32-p271:32:32-p272:64:64-i64:64-i128:128-f80:128-n8:16:32:64-S128"
target triple = "x86_64-pc-linux-gnu"

; Function Attrs: nounwind uwtable
define internal i32 @pg_wchar2euc_with_len(ptr noundef %0, ptr noundef %1, i32 noundef %2) #1 {
  %4 = alloca ptr, align 8
  %5 = alloca ptr, align 8
  %6 = alloca i32, align 4
  %7 = alloca i32, align 4
  %8 = alloca i8, align 1
  store ptr %0, ptr %4, align 8
  store ptr %1, ptr %5, align 8
  store i32 %2, ptr %6, align 4
  call void @llvm.lifetime.start.p0(i64 4, ptr %7) #7
  store i32 0, ptr %7, align 4
  br label %9

9:                                                ; preds = %103, %3
  %10 = load i32, ptr %6, align 4
  %11 = icmp sgt i32 %10, 0
  br i1 %11, label %12, label %16

12:                                               ; preds = %9
  %13 = load ptr, ptr %4, align 8
  %14 = load i32, ptr %13, align 4
  %15 = icmp ne i32 %14, 0
  br label %16

16:                                               ; preds = %12, %9
  %17 = phi i1 [ false, %9 ], [ %15, %12 ]
  br i1 %17, label %18, label %108

18:                                               ; preds = %16
  call void @llvm.lifetime.start.p0(i64 1, ptr %8) #7
  %19 = load ptr, ptr %4, align 8
  %20 = load i32, ptr %19, align 4
  %21 = lshr i32 %20, 24
  %22 = trunc i32 %21 to i8
  store i8 %22, ptr %8, align 1
  %23 = icmp ne i8 %22, 0
  br i1 %23, label %24, label %50

24:                                               ; preds = %18
  %25 = load i8, ptr %8, align 1
  %26 = load ptr, ptr %5, align 8
  %27 = getelementptr inbounds nuw i8, ptr %26, i32 1
  store ptr %27, ptr %5, align 8
  store i8 %25, ptr %26, align 1
  %28 = load ptr, ptr %4, align 8
  %29 = load i32, ptr %28, align 4
  %30 = lshr i32 %29, 16
  %31 = and i32 %30, 255
  %32 = trunc i32 %31 to i8
  %33 = load ptr, ptr %5, align 8
  %34 = getelementptr inbounds nuw i8, ptr %33, i32 1
  store ptr %34, ptr %5, align 8
  store i8 %32, ptr %33, align 1
  %35 = load ptr, ptr %4, align 8
  %36 = load i32, ptr %35, align 4
  %37 = lshr i32 %36, 8
  %38 = and i32 %37, 255
  %39 = trunc i32 %38 to i8
  %40 = load ptr, ptr %5, align 8
  %41 = getelementptr inbounds nuw i8, ptr %40, i32 1
  store ptr %41, ptr %5, align 8
  store i8 %39, ptr %40, align 1
  %42 = load ptr, ptr %4, align 8
  %43 = load i32, ptr %42, align 4
  %44 = and i32 %43, 255
  %45 = trunc i32 %44 to i8
  %46 = load ptr, ptr %5, align 8
  %47 = getelementptr inbounds nuw i8, ptr %46, i32 1
  store ptr %47, ptr %5, align 8
  store i8 %45, ptr %46, align 1
  %48 = load i32, ptr %7, align 4
  %49 = add i32 %48, 4
  store i32 %49, ptr %7, align 4
  br label %103

50:                                               ; preds = %18
  %51 = load ptr, ptr %4, align 8
  %52 = load i32, ptr %51, align 4
  %53 = lshr i32 %52, 16
  %54 = trunc i32 %53 to i8
  store i8 %54, ptr %8, align 1
  %55 = icmp ne i8 %54, 0
  br i1 %55, label %56, label %75

56:                                               ; preds = %50
  %57 = load i8, ptr %8, align 1
  %58 = load ptr, ptr %5, align 8
  %59 = getelementptr inbounds nuw i8, ptr %58, i32 1
  store ptr %59, ptr %5, align 8
  store i8 %57, ptr %58, align 1
  %60 = load ptr, ptr %4, align 8
  %61 = load i32, ptr %60, align 4
  %62 = lshr i32 %61, 8
  %63 = and i32 %62, 255
  %64 = trunc i32 %63 to i8
  %65 = load ptr, ptr %5, align 8
  %66 = getelementptr inbounds nuw i8, ptr %65, i32 1
  store ptr %66, ptr %5, align 8
  store i8 %64, ptr %65, align 1
  %67 = load ptr, ptr %4, align 8
  %68 = load i32, ptr %67, align 4
  %69 = and i32 %68, 255
  %70 = trunc i32 %69 to i8
  %71 = load ptr, ptr %5, align 8
  %72 = getelementptr inbounds nuw i8, ptr %71, i32 1
  store ptr %72, ptr %5, align 8
  store i8 %70, ptr %71, align 1
  %73 = load i32, ptr %7, align 4
  %74 = add i32 %73, 3
  store i32 %74, ptr %7, align 4
  br label %102

75:                                               ; preds = %50
  %76 = load ptr, ptr %4, align 8
  %77 = load i32, ptr %76, align 4
  %78 = lshr i32 %77, 8
  %79 = trunc i32 %78 to i8
  store i8 %79, ptr %8, align 1
  %80 = icmp ne i8 %79, 0
  br i1 %80, label %81, label %93

81:                                               ; preds = %75
  %82 = load i8, ptr %8, align 1
  %83 = load ptr, ptr %5, align 8
  %84 = getelementptr inbounds nuw i8, ptr %83, i32 1
  store ptr %84, ptr %5, align 8
  store i8 %82, ptr %83, align 1
  %85 = load ptr, ptr %4, align 8
  %86 = load i32, ptr %85, align 4
  %87 = and i32 %86, 255
  %88 = trunc i32 %87 to i8
  %89 = load ptr, ptr %5, align 8
  %90 = getelementptr inbounds nuw i8, ptr %89, i32 1
  store ptr %90, ptr %5, align 8
  store i8 %88, ptr %89, align 1
  %91 = load i32, ptr %7, align 4
  %92 = add i32 %91, 2
  store i32 %92, ptr %7, align 4
  br label %101

93:                                               ; preds = %75
  %94 = load ptr, ptr %4, align 8
  %95 = load i32, ptr %94, align 4
  %96 = trunc i32 %95 to i8
  %97 = load ptr, ptr %5, align 8
  %98 = getelementptr inbounds nuw i8, ptr %97, i32 1
  store ptr %98, ptr %5, align 8
  store i8 %96, ptr %97, align 1
  %99 = load i32, ptr %7, align 4
  %100 = add i32 %99, 1
  store i32 %100, ptr %7, align 4
  br label %101

101:                                              ; preds = %93, %81
  br label %102

102:                                              ; preds = %101, %56
  br label %103

103:                                              ; preds = %102, %24
  %104 = load ptr, ptr %4, align 8
  %105 = getelementptr inbounds nuw i32, ptr %104, i32 1
  store ptr %105, ptr %4, align 8
  %106 = load i32, ptr %6, align 4
  %107 = add i32 %106, -1
  store i32 %107, ptr %6, align 4
  call void @llvm.lifetime.end.p0(i64 1, ptr %8) #7
  br label %9, !llvm.loop !7

108:                                              ; preds = %16
  %109 = load ptr, ptr %5, align 8
  store i8 0, ptr %109, align 1
  %110 = load i32, ptr %7, align 4
  call void @llvm.lifetime.end.p0(i64 4, ptr %7) #7
  ret i32 %110
}