; Function Attrs: nofree norecurse nosync nounwind memory(argmem: readwrite) uwtable
define internal i32 @pg_wchar2euc_with_len(ptr noundef readonly captures(none) %0, ptr noundef writeonly captures(none) %1, i32 noundef %2) #2 {
  %4 = icmp sgt i32 %2, 0
  br i1 %4, label %.lr.ph, label %.critedge

.lr.ph:                                           ; preds = %3, %45
  %.046 = phi i32 [ %46, %45 ], [ 0, %3 ]
  %.03245 = phi i32 [ %48, %45 ], [ %2, %3 ]
  %.03344 = phi ptr [ %.134, %45 ], [ %1, %3 ]
  %.03543 = phi ptr [ %47, %45 ], [ %0, %3 ]
  %5 = load i32, ptr %.03543, align 4
  %.not = icmp eq i32 %5, 0
  br i1 %.not, label %.critedge, label %6

6:                                                ; preds = %.lr.ph
  %.not40 = icmp ult i32 %5, 16777216
  br i1 %.not40, label %22, label %7

7:                                                ; preds = %6
  %8 = lshr i32 %5, 24
  %9 = trunc nuw i32 %8 to i8
  %10 = getelementptr inbounds nuw i8, ptr %.03344, i64 1
  store i8 %9, ptr %.03344, align 1
  %11 = load i32, ptr %.03543, align 4
  %12 = lshr i32 %11, 16
  %13 = trunc i32 %12 to i8
  %14 = getelementptr inbounds nuw i8, ptr %.03344, i64 2
  store i8 %13, ptr %10, align 1
  %15 = load i32, ptr %.03543, align 4
  %16 = lshr i32 %15, 8
  %17 = trunc i32 %16 to i8
  %18 = getelementptr inbounds nuw i8, ptr %.03344, i64 3
  store i8 %17, ptr %14, align 1
  %19 = load i32, ptr %.03543, align 4
  %20 = trunc i32 %19 to i8
  %21 = getelementptr inbounds nuw i8, ptr %.03344, i64 4
  store i8 %20, ptr %18, align 1
  br label %45

22:                                               ; preds = %6
  %.not41 = icmp samesign ult i32 %5, 65536
  br i1 %.not41, label %34, label %23

23:                                               ; preds = %22
  %24 = lshr i32 %5, 16
  %25 = trunc nuw i32 %24 to i8
  %26 = getelementptr inbounds nuw i8, ptr %.03344, i64 1
  store i8 %25, ptr %.03344, align 1
  %27 = load i32, ptr %.03543, align 4
  %28 = lshr i32 %27, 8
  %29 = trunc i32 %28 to i8
  %30 = getelementptr inbounds nuw i8, ptr %.03344, i64 2
  store i8 %29, ptr %26, align 1
  %31 = load i32, ptr %.03543, align 4
  %32 = trunc i32 %31 to i8
  %33 = getelementptr inbounds nuw i8, ptr %.03344, i64 3
  store i8 %32, ptr %30, align 1
  br label %45

34:                                               ; preds = %22
  %.not42 = icmp samesign ult i32 %5, 256
  br i1 %.not42, label %42, label %35

35:                                               ; preds = %34
  %36 = lshr i32 %5, 8
  %37 = trunc nuw i32 %36 to i8
  %38 = getelementptr inbounds nuw i8, ptr %.03344, i64 1
  store i8 %37, ptr %.03344, align 1
  %39 = load i32, ptr %.03543, align 4
  %40 = trunc i32 %39 to i8
  %41 = getelementptr inbounds nuw i8, ptr %.03344, i64 2
  store i8 %40, ptr %38, align 1
  br label %45

42:                                               ; preds = %34
  %43 = trunc nuw i32 %5 to i8
  %44 = getelementptr inbounds nuw i8, ptr %.03344, i64 1
  store i8 %43, ptr %.03344, align 1
  br label %45

45:                                               ; preds = %23, %42, %35, %7
  %.sink = phi i32 [ 3, %23 ], [ 1, %42 ], [ 2, %35 ], [ 4, %7 ]
  %.134 = phi ptr [ %33, %23 ], [ %44, %42 ], [ %41, %35 ], [ %21, %7 ]
  %46 = add i32 %.046, %.sink
  %47 = getelementptr inbounds nuw i8, ptr %.03543, i64 4
  %48 = add nsw i32 %.03245, -1
  %49 = icmp sgt i32 %.03245, 1
  br i1 %49, label %.lr.ph, label %.critedge, !llvm.loop !8

.critedge:                                        ; preds = %.lr.ph, %45, %3
  %.033.lcssa = phi ptr [ %1, %3 ], [ %.134, %45 ], [ %.03344, %.lr.ph ]
  %.0.lcssa = phi i32 [ 0, %3 ], [ %46, %45 ], [ %.046, %.lr.ph ]
  store i8 0, ptr %.033.lcssa, align 1
  ret i32 %.0.lcssa
}